target datalayout = "e-m:e-p270:32:32-p271:32:32-p272:64:64-i64:64-i128:128-f80:128-n8:16:32:64-S128"
target triple = "x86_64-unknown-linux-gnu"

%"struct.llvh::fltSemantics" = type { i16, i16, i32, i32 }
%"class.llvh::detail::IEEEFloat" = type <{ ptr, %"union.llvh::detail::IEEEFloat::Significand", i16, i8, [5 x i8] }>
%"union.llvh::detail::IEEEFloat::Significand" = type { i64 }
%"class.llvh::APInt" = type <{ %union.anon, i32, [4 x i8] }>
%union.anon = type { i64 }
%"class.llvh::ArrayRef" = type { ptr, i64 }

; Function Attrs: mustprogress nounwind uwtable
define internal noundef i32 @_ZN4llvhL16partCountForBitsEj(i32 noundef %bits) #1 {
entry:
  %bits.addr = alloca i32, align 4
  store i32 %bits, ptr %bits.addr, align 4
  %0 = load i32, ptr %bits.addr, align 4
  %add = add i32 %0, 64
  %sub = sub i32 %add, 1
  %div = udiv i32 %sub, 64
  ret i32 %div
}

; Function Attrs: mustprogress nounwind uwtable
define hidden noundef i32 @_ZNK4llvh6detail9IEEEFloat9partCountEv(ptr noundef nonnull align 8 dereferenceable(24) %this) #1 align 2 {
entry:
  %this.addr = alloca ptr, align 8
  store ptr %this, ptr %this.addr, align 8
  %this1 = load ptr, ptr %this.addr, align 8
  %semantics = getelementptr inbounds %"class.llvh::detail::IEEEFloat", ptr %this1, i32 0, i32 0
  %0 = load ptr, ptr %semantics, align 8
  %precision = getelementptr inbounds %"struct.llvh::fltSemantics", ptr %0, i32 0, i32 2
  %1 = load i32, ptr %precision, align 4
  %add = add i32 %1, 1
  %call = call noundef i32 @_ZN4llvhL16partCountForBitsEj(i32 noundef %add)
  ret i32 %call
}

; Function Attrs: mustprogress nounwind uwtable
define linkonce_odr hidden noundef zeroext i1 @_ZNK4llvh6detail9IEEEFloat10isInfinityEv(ptr noundef nonnull align 8 dereferenceable(24) %this) #1 comdat align 2 {
entry:
  %this.addr = alloca ptr, align 8
  store ptr %this, ptr %this.addr, align 8
  %this1 = load ptr, ptr %this.addr, align 8
  %category = getelementptr inbounds %"class.llvh::detail::IEEEFloat", ptr %this1, i32 0, i32 3
  %bf.load = load i8, ptr %category, align 2
  %bf.clear = and i8 %bf.load, 7
  %bf.cast = zext i8 %bf.clear to i32
  %cmp = icmp eq i32 %bf.cast, 0
  ret i1 %cmp
}

; Function Attrs: mustprogress nounwind uwtable
define linkonce_odr hidden noundef zeroext i1 @_ZNK4llvh6detail9IEEEFloat5isNaNEv(ptr noundef nonnull align 8 dereferenceable(24) %this) #1 comdat align 2 {
entry:
  %this.addr = alloca ptr, align 8
  store ptr %this, ptr %this.addr, align 8
  %this1 = load ptr, ptr %this.addr, align 8
  %category = getelementptr inbounds %"class.llvh::detail::IEEEFloat", ptr %this1, i32 0, i32 3
  %bf.load = load i8, ptr %category, align 2
  %bf.clear = and i8 %bf.load, 7
  %bf.cast = zext i8 %bf.clear to i32
  %cmp = icmp eq i32 %bf.cast, 1
  ret i1 %cmp
}

; Function Attrs: mustprogress nounwind uwtable
define hidden noundef ptr @_ZN4llvh6detail9IEEEFloat16significandPartsEv(ptr noundef nonnull align 8 dereferenceable(24) %this) #1 align 2 {
entry:
  %retval = alloca ptr, align 8
  %this.addr = alloca ptr, align 8
  store ptr %this, ptr %this.addr, align 8
  %this1 = load ptr, ptr %this.addr, align 8
  %call = call noundef i32 @_ZNK4llvh6detail9IEEEFloat9partCountEv(ptr noundef nonnull align 8 dereferenceable(24) %this1)
  %cmp = icmp ugt i32 %call, 1
  br i1 %cmp, label %if.then, label %if.else

if.then:                                          ; preds = %entry
  %significand = getelementptr inbounds %"class.llvh::detail::IEEEFloat", ptr %this1, i32 0, i32 1
  %0 = load ptr, ptr %significand, align 8
  store ptr %0, ptr %retval, align 8
  br label %return

if.else:                                          ; preds = %entry
  %significand2 = getelementptr inbounds %"class.llvh::detail::IEEEFloat", ptr %this1, i32 0, i32 1
  store ptr %significand2, ptr %retval, align 8
  br label %return

return:                                           ; preds = %if.else, %if.then
  %1 = load ptr, ptr %retval, align 8
  ret ptr %1
}

; Function Attrs: mustprogress nounwind uwtable
define linkonce_odr hidden noundef zeroext i1 @_ZNK4llvh6detail9IEEEFloat6isZeroEv(ptr noundef nonnull align 8 dereferenceable(24) %this) #1 comdat align 2 {
entry:
  %this.addr = alloca ptr, align 8
  store ptr %this, ptr %this.addr, align 8
  %this1 = load ptr, ptr %this.addr, align 8
  %category = getelementptr inbounds %"class.llvh::detail::IEEEFloat", ptr %this1, i32 0, i32 3
  %bf.load = load i8, ptr %category, align 2
  %bf.clear = and i8 %bf.load, 7
  %bf.cast = zext i8 %bf.clear to i32
  %cmp = icmp eq i32 %bf.cast, 3
  ret i1 %cmp
}

; Function Attrs: mustprogress nounwind uwtable
define linkonce_odr hidden noundef zeroext i1 @_ZNK4llvh6detail9IEEEFloat8isFiniteEv(ptr noundef nonnull align 8 dereferenceable(24) %this) #1 comdat align 2 {
entry:
  %this.addr = alloca ptr, align 8
  store ptr %this, ptr %this.addr, align 8
  %this1 = load ptr, ptr %this.addr, align 8
  %call = call noundef zeroext i1 @_ZNK4llvh6detail9IEEEFloat5isNaNEv(ptr noundef nonnull align 8 dereferenceable(24) %this1)
  br i1 %call, label %land.end, label %land.rhs

land.rhs:                                         ; preds = %entry
  %call2 = call noundef zeroext i1 @_ZNK4llvh6detail9IEEEFloat10isInfinityEv(ptr noundef nonnull align 8 dereferenceable(24) %this1)
  %lnot = xor i1 %call2, true
  br label %land.end

land.end:                                         ; preds = %land.rhs, %entry
  %0 = phi i1 [ false, %entry ], [ %lnot, %land.rhs ]
  ret i1 %0
}

; Function Attrs: mustprogress nounwind uwtable
define linkonce_odr hidden void @_ZN4llvh8ArrayRefImEC2ILm2EEERAT__Km(ptr noundef nonnull align 8 dereferenceable(16) %this, ptr noundef nonnull align 8 dereferenceable(16) %Arr) unnamed_addr #1 comdat align 2 {
entry:
  %this.addr = alloca ptr, align 8
  %Arr.addr = alloca ptr, align 8
  store ptr %this, ptr %this.addr, align 8
  store ptr %Arr, ptr %Arr.addr, align 8
  %this1 = load ptr, ptr %this.addr, align 8
  %Data = getelementptr inbounds %"class.llvh::ArrayRef", ptr %this1, i32 0, i32 0
  %0 = load ptr, ptr %Arr.addr, align 8
  %arraydecay = getelementptr inbounds [2 x i64], ptr %0, i64 0, i64 0
  store ptr %arraydecay, ptr %Data, align 8
  %Length = getelementptr inbounds %"class.llvh::ArrayRef", ptr %this1, i32 0, i32 1
  store i64 2, ptr %Length, align 8
  ret void
}

; Function Attrs: mustprogress nounwind uwtable
define hidden noundef ptr @_ZNK4llvh6detail9IEEEFloat16significandPartsEv(ptr noundef nonnull align 8 dereferenceable(24) %this) #1 align 2 {
entry:
  %this.addr = alloca ptr, align 8
  store ptr %this, ptr %this.addr, align 8
  %this1 = load ptr, ptr %this.addr, align 8
  %call = call noundef ptr @_ZN4llvh6detail9IEEEFloat16significandPartsEv(ptr noundef nonnull align 8 dereferenceable(24) %this1)
  ret ptr %call
}

; Function Attrs: mustprogress nounwind uwtable
define linkonce_odr hidden noundef zeroext i1 @_ZNK4llvh6detail9IEEEFloat15isFiniteNonZeroEv(ptr noundef nonnull align 8 dereferenceable(24) %this) #1 comdat align 2 {
entry:
  %this.addr = alloca ptr, align 8
  store ptr %this, ptr %this.addr, align 8
  %this1 = load ptr, ptr %this.addr, align 8
  %call = call noundef zeroext i1 @_ZNK4llvh6detail9IEEEFloat8isFiniteEv(ptr noundef nonnull align 8 dereferenceable(24) %this1)
  br i1 %call, label %land.rhs, label %land.end

land.rhs:                                         ; preds = %entry
  %call2 = call noundef zeroext i1 @_ZNK4llvh6detail9IEEEFloat6isZeroEv(ptr noundef nonnull align 8 dereferenceable(24) %this1)
  %lnot = xor i1 %call2, true
  br label %land.end

land.end:                                         ; preds = %land.rhs, %entry
  %0 = phi i1 [ false, %entry ], [ %lnot, %land.rhs ]
  ret i1 %0
}

; Function Attrs: mustprogress nounwind uwtable
define hidden void @_ZNK4llvh6detail9IEEEFloat34convertF80LongDoubleAPFloatToAPIntEv(ptr noalias sret(%"class.llvh::APInt") align 8 %agg.result, ptr noundef nonnull align 8 dereferenceable(24) %this) #1 align 2 {
entry:
  %result.ptr = alloca ptr, align 8
  %this.addr = alloca ptr, align 8
  %myexponent = alloca i64, align 8
  %mysignificand = alloca i64, align 8
  %words = alloca [2 x i64], align 16
  %agg.tmp = alloca %"class.llvh::ArrayRef", align 8
  store ptr %agg.result, ptr %result.ptr, align 8
  store ptr %this, ptr %this.addr, align 8
  %this1 = load ptr, ptr %this.addr, align 8
  %call = call noundef zeroext i1 @_ZNK4llvh6detail9IEEEFloat15isFiniteNonZeroEv(ptr noundef nonnull align 8 dereferenceable(24) %this1)
  br i1 %call, label %if.then, label %if.else

if.then:                                          ; preds = %entry
  %exponent = getelementptr inbounds %"class.llvh::detail::IEEEFloat", ptr %this1, i32 0, i32 2
  %0 = load i16, ptr %exponent, align 8
  %conv = sext i16 %0 to i32
  %add = add nsw i32 %conv, 16383
  %conv2 = sext i32 %add to i64
  store i64 %conv2, ptr %myexponent, align 8
  %call3 = call noundef ptr @_ZNK4llvh6detail9IEEEFloat16significandPartsEv(ptr noundef nonnull align 8 dereferenceable(24) %this1)
  %arrayidx = getelementptr inbounds i64, ptr %call3, i64 0
  %1 = load i64, ptr %arrayidx, align 8
  store i64 %1, ptr %mysignificand, align 8
  %2 = load i64, ptr %myexponent, align 8
  %cmp = icmp eq i64 %2, 1
  br i1 %cmp, label %land.lhs.true, label %if.end

land.lhs.true:                                    ; preds = %if.then
  %3 = load i64, ptr %mysignificand, align 8
  %and = and i64 %3, -9223372036854775808
  %tobool = icmp ne i64 %and, 0
  br i1 %tobool, label %if.end, label %if.then4

if.then4:                                         ; preds = %land.lhs.true
  store i64 0, ptr %myexponent, align 8
  br label %if.end

if.end:                                           ; preds = %if.then4, %land.lhs.true, %if.then
  br label %if.end19

if.else:                                          ; preds = %entry
  %category = getelementptr inbounds %"class.llvh::detail::IEEEFloat", ptr %this1, i32 0, i32 3
  %bf.load = load i8, ptr %category, align 2
  %bf.clear = and i8 %bf.load, 7
  %bf.cast = zext i8 %bf.clear to i32
  %cmp5 = icmp eq i32 %bf.cast, 3
  br i1 %cmp5, label %if.then6, label %if.else7

if.then6:                                         ; preds = %if.else
  store i64 0, ptr %myexponent, align 8
  store i64 0, ptr %mysignificand, align 8
  br label %if.end18

if.else7:                                         ; preds = %if.else
  %category8 = getelementptr inbounds %"class.llvh::detail::IEEEFloat", ptr %this1, i32 0, i32 3
  %bf.load9 = load i8, ptr %category8, align 2
  %bf.clear10 = and i8 %bf.load9, 7
  %bf.cast11 = zext i8 %bf.clear10 to i32
  %cmp12 = icmp eq i32 %bf.cast11, 0
  br i1 %cmp12, label %if.then13, label %if.else14

if.then13:                                        ; preds = %if.else7
  store i64 32767, ptr %myexponent, align 8
  store i64 -9223372036854775808, ptr %mysignificand, align 8
  br label %if.end17

if.else14:                                        ; preds = %if.else7
  store i64 32767, ptr %myexponent, align 8
  %call15 = call noundef ptr @_ZNK4llvh6detail9IEEEFloat16significandPartsEv(ptr noundef nonnull align 8 dereferenceable(24) %this1)
  %arrayidx16 = getelementptr inbounds i64, ptr %call15, i64 0
  %4 = load i64, ptr %arrayidx16, align 8
  store i64 %4, ptr %mysignificand, align 8
  br label %if.end17

if.end17:                                         ; preds = %if.else14, %if.then13
  br label %if.end18

if.end18:                                         ; preds = %if.end17, %if.then6
  br label %if.end19

if.end19:                                         ; preds = %if.end18, %if.end
  %5 = load i64, ptr %mysignificand, align 8
  %arrayidx20 = getelementptr inbounds [2 x i64], ptr %words, i64 0, i64 0
  store i64 %5, ptr %arrayidx20, align 16
  %sign = getelementptr inbounds %"class.llvh::detail::IEEEFloat", ptr %this1, i32 0, i32 3
  %bf.load21 = load i8, ptr %sign, align 2
  %bf.lshr = lshr i8 %bf.load21, 3
  %bf.clear22 = and i8 %bf.lshr, 1
  %bf.cast23 = zext i8 %bf.clear22 to i32
  %and24 = and i32 %bf.cast23, 1
  %conv25 = sext i32 %and24 to i64
  %shl = shl i64 %conv25, 15
  %6 = load i64, ptr %myexponent, align 8
  %and26 = and i64 %6, 32767
  %or = or i64 %shl, %and26
  %arrayidx27 = getelementptr inbounds [2 x i64], ptr %words, i64 0, i64 1
  store i64 %or, ptr %arrayidx27, align 8
  call void @_ZN4llvh8ArrayRefImEC2ILm2EEERAT__Km(ptr noundef nonnull align 8 dereferenceable(16) %agg.tmp, ptr noundef nonnull align 8 dereferenceable(16) %words)
  %7 = getelementptr inbounds { ptr, i64 }, ptr %agg.tmp, i32 0, i32 0
  %8 = load ptr, ptr %7, align 8
  %9 = getelementptr inbounds { ptr, i64 }, ptr %agg.tmp, i32 0, i32 1
  %10 = load i64, ptr %9, align 8
  call void @_ZN4llvh5APIntC1EjNS_8ArrayRefImEE(ptr noundef nonnull align 8 dereferenceable(12) %agg.result, i32 noundef 80, ptr %8, i64 %10)
  ret void
}