; Function Attrs: mustprogress nounwind uwtable
define hidden void @_ZNK4llvh6detail9IEEEFloat34convertF80LongDoubleAPFloatToAPIntEv(ptr noalias sret(%"class.llvh::APInt") align 8 %agg.result, ptr noundef nonnull readonly align 8 captures(none) dereferenceable(24) %this) local_unnamed_addr #2 align 2 {
entry:
  %words = alloca [2 x i64], align 16
  %category.i.i.i = getelementptr inbounds nuw i8, ptr %this, i64 18
  %bf.load.i.i.i = load i8, ptr %category.i.i.i, align 2
  %bf.clear.i.i.i = and i8 %bf.load.i.i.i, 6
  %0 = icmp ne i8 %bf.clear.i.i.i, 0
  %bf.clear.i.i = and i8 %bf.load.i.i.i, 7
  %cmp.i.i = icmp ne i8 %bf.clear.i.i, 3
  %1 = and i1 %0, %cmp.i.i
  br i1 %1, label %if.then, label %if.else

if.then:                                          ; preds = %entry
  %exponent = getelementptr inbounds nuw i8, ptr %this, i64 16
  %2 = load i16, ptr %exponent, align 8
  %conv = sext i16 %2 to i64
  %add = add nsw i64 %conv, 16383
  %3 = load ptr, ptr %this, align 8
  %precision.i.i.i = getelementptr inbounds nuw i8, ptr %3, i64 4
  %4 = load i32, ptr %precision.i.i.i, align 4
  %5 = add i32 %4, -64
  %cmp.i.i3 = icmp ult i32 %5, -128
  %significand.i.i = getelementptr inbounds nuw i8, ptr %this, i64 8
  %6 = load ptr, ptr %significand.i.i, align 8
  %retval.0.i.i = select i1 %cmp.i.i3, ptr %6, ptr %significand.i.i
  %7 = load i64, ptr %retval.0.i.i, align 8
  %cmp = icmp eq i64 %add, 1
  %.lobit = lshr i64 %7, 63
  %8 = and i64 %add, 32767
  %9 = select i1 %cmp, i64 %.lobit, i64 %8
  br label %if.end19

if.else:                                          ; preds = %entry
  switch i8 %bf.clear.i.i, label %if.else14 [
    i8 3, label %if.end19
    i8 0, label %if.then13
  ]

if.then13:                                        ; preds = %if.else
  br label %if.end19

if.else14:                                        ; preds = %if.else
  %10 = load ptr, ptr %this, align 8
  %precision.i.i.i4 = getelementptr inbounds nuw i8, ptr %10, i64 4
  %11 = load i32, ptr %precision.i.i.i4, align 4
  %12 = add i32 %11, -64
  %cmp.i.i5 = icmp ult i32 %12, -128
  %significand.i.i6 = getelementptr inbounds nuw i8, ptr %this, i64 8
  %13 = load ptr, ptr %significand.i.i6, align 8
  %retval.0.i.i7 = select i1 %cmp.i.i5, ptr %13, ptr %significand.i.i6
  %14 = load i64, ptr %retval.0.i.i7, align 8
  br label %if.end19

if.end19:                                         ; preds = %if.then, %if.else, %if.else14, %if.then13
  %myexponent.0 = phi i64 [ 32767, %if.then13 ], [ 32767, %if.else14 ], [ 0, %if.else ], [ %9, %if.then ]
  %mysignificand.0 = phi i64 [ -9223372036854775808, %if.then13 ], [ %14, %if.else14 ], [ 0, %if.else ], [ %7, %if.then ]
  store i64 %mysignificand.0, ptr %words, align 16
  %bf.lshr = lshr i8 %bf.load.i.i.i, 3
  %15 = and i8 %bf.lshr, 1
  %conv25 = zext nneg i8 %15 to i64
  %shl = shl nuw nsw i64 %conv25, 15
  %or = add nuw nsw i64 %myexponent.0, %shl
  %arrayidx27 = getelementptr inbounds nuw i8, ptr %words, i64 8
  store i64 %or, ptr %arrayidx27, align 8
  call void @_ZN4llvh5APIntC1EjNS_8ArrayRefImEE(ptr noundef nonnull align 8 dereferenceable(12) %agg.result, i32 noundef 80, ptr nonnull %words, i64 2) #26
  ret void
}